target datalayout = "e-m:e-p270:32:32-p271:32:32-p272:64:64-i64:64-i128:128-f80:128-n8:16:32:64-S128"
target triple = "x86_64-pc-linux-gnu"

%struct.tr2_tgt = type { ptr, ptr, ptr, ptr, ptr, ptr, ptr, ptr, ptr, ptr, ptr, ptr, ptr, ptr, ptr, ptr, ptr, ptr, ptr, ptr, ptr, ptr, ptr, ptr, ptr, ptr, ptr, ptr, ptr, ptr }

@trace2_enabled = internal global i32 0, align 4
@tr2_tgt_builtins = internal global [4 x ptr] [ptr @tr2_tgt_normal, ptr @tr2_tgt_perf, ptr @tr2_tgt_event, ptr null], align 16
@tr2main_exit_code = internal global i32 0, align 4

; Function Attrs: nounwind uwtable
define dso_local void @trace2_cmd_exit_fl(ptr noundef %0, i32 noundef %1, i32 noundef %2) #0 {
  %4 = alloca ptr, align 8
  %5 = alloca i32, align 4
  %6 = alloca i32, align 4
  %7 = alloca ptr, align 8
  %8 = alloca i32, align 4
  %9 = alloca i64, align 8
  %10 = alloca i64, align 8
  %11 = alloca i32, align 4
  store ptr %0, ptr %4, align 8, !tbaa !4
  store i32 %1, ptr %5, align 4, !tbaa !9
  store i32 %2, ptr %6, align 4, !tbaa !9
  call void @llvm.lifetime.start.p0(i64 8, ptr %7) #9
  call void @llvm.lifetime.start.p0(i64 4, ptr %8) #9
  call void @llvm.lifetime.start.p0(i64 8, ptr %9) #9
  call void @llvm.lifetime.start.p0(i64 8, ptr %10) #9
  %12 = load i32, ptr @trace2_enabled, align 4, !tbaa !9
  %13 = icmp ne i32 %12, 0
  br i1 %13, label %15, label %14

14:                                               ; preds = %3
  store i32 1, ptr %11, align 4
  br label %57

15:                                               ; preds = %3
  call void @trace2_collect_process_info(i32 noundef 1)
  %16 = load i32, ptr %6, align 4, !tbaa !9
  store i32 %16, ptr @tr2main_exit_code, align 4, !tbaa !9
  %17 = call i64 @getnanotime()
  %18 = udiv i64 %17, 1000
  store i64 %18, ptr %9, align 8, !tbaa !21
  %19 = load i64, ptr %9, align 8, !tbaa !21
  %20 = call i64 @tr2tls_absolute_elapsed(i64 noundef %19)
  store i64 %20, ptr %10, align 8, !tbaa !21
  store i32 0, ptr %8, align 4, !tbaa !9
  %21 = load i32, ptr %8, align 4, !tbaa !9
  %22 = sext i32 %21 to i64
  %23 = getelementptr inbounds [4 x ptr], ptr @tr2_tgt_builtins, i64 0, i64 %22
  %24 = load ptr, ptr %23, align 8, !tbaa !11
  store ptr %24, ptr %7, align 8, !tbaa !11
  br label %25

25:                                               ; preds = %49, %15
  %26 = load ptr, ptr %7, align 8, !tbaa !11
  %27 = icmp ne ptr %26, null
  br i1 %27, label %28, label %56

28:                                               ; preds = %25
  %29 = load ptr, ptr %7, align 8, !tbaa !11
  %30 = getelementptr inbounds nuw %struct.tr2_tgt, ptr %29, i32 0, i32 0
  %31 = load ptr, ptr %30, align 8, !tbaa !13
  %32 = call i32 @tr2_dst_trace_want(ptr noundef %31)
  %33 = icmp ne i32 %32, 0
  br i1 %33, label %34, label %48

34:                                               ; preds = %28
  %35 = load ptr, ptr %7, align 8, !tbaa !11
  %36 = getelementptr inbounds nuw %struct.tr2_tgt, ptr %35, i32 0, i32 5
  %37 = load ptr, ptr %36, align 8, !tbaa !36
  %38 = icmp ne ptr %37, null
  br i1 %38, label %39, label %47

39:                                               ; preds = %34
  %40 = load ptr, ptr %7, align 8, !tbaa !11
  %41 = getelementptr inbounds nuw %struct.tr2_tgt, ptr %40, i32 0, i32 5
  %42 = load ptr, ptr %41, align 8, !tbaa !36
  %43 = load ptr, ptr %4, align 8, !tbaa !4
  %44 = load i32, ptr %5, align 4, !tbaa !9
  %45 = load i64, ptr %10, align 8, !tbaa !21
  %46 = load i32, ptr %6, align 4, !tbaa !9
  call void %42(ptr noundef %43, i32 noundef %44, i64 noundef %45, i32 noundef %46)
  br label %47

47:                                               ; preds = %39, %34
  br label %48

48:                                               ; preds = %47, %28
  br label %49

49:                                               ; preds = %48
  %50 = load i32, ptr %8, align 4, !tbaa !9
  %51 = add nsw i32 %50, 1
  store i32 %51, ptr %8, align 4, !tbaa !9
  %52 = load i32, ptr %8, align 4, !tbaa !9
  %53 = sext i32 %52 to i64
  %54 = getelementptr inbounds [4 x ptr], ptr @tr2_tgt_builtins, i64 0, i64 %53
  %55 = load ptr, ptr %54, align 8, !tbaa !11
  store ptr %55, ptr %7, align 8, !tbaa !11
  br label %25, !llvm.loop !37

56:                                               ; preds = %25
  store i32 0, ptr %11, align 4
  br label %57

57:                                               ; preds = %56, %14
  call void @llvm.lifetime.end.p0(i64 8, ptr %10) #9
  call void @llvm.lifetime.end.p0(i64 8, ptr %9) #9
  call void @llvm.lifetime.end.p0(i64 4, ptr %8) #9
  call void @llvm.lifetime.end.p0(i64 8, ptr %7) #9
  %58 = load i32, ptr %11, align 4
  switch i32 %58, label %60 [
    i32 0, label %59
    i32 1, label %59
  ]

59:                                               ; preds = %57, %57
  ret void

60:                                               ; preds = %57
  unreachable
}