; Function Attrs: nounwind uwtable
define dso_local void @trace2_cmd_exit_fl(ptr noundef %0, i32 noundef %1, i32 noundef %2) local_unnamed_addr #0 {
  %.b = load i1, ptr @trace2_enabled, align 4
  br i1 %.b, label %4, label %.loopexit

4:                                                ; preds = %3
  tail call void @trace2_collect_process_info(i32 noundef 1) #11
  store i32 %2, ptr @tr2main_exit_code, align 4, !tbaa !18
  %5 = tail call i64 @getnanotime() #11
  %6 = udiv i64 %5, 1000
  %7 = tail call i64 @tr2tls_absolute_elapsed(i64 noundef %6) #11
  br label %8

8:                                                ; preds = %4, %15
  %indvars.iv = phi i64 [ 0, %4 ], [ %indvars.iv.next, %15 ]
  %.017 = phi ptr [ @tr2_tgt_normal, %4 ], [ %17, %15 ]
  %9 = load ptr, ptr %.017, align 8, !tbaa !14
  %10 = tail call i32 @tr2_dst_trace_want(ptr noundef %9) #11
  %.not14 = icmp eq i32 %10, 0
  br i1 %.not14, label %15, label %11

11:                                               ; preds = %8
  %12 = getelementptr inbounds nuw i8, ptr %.017, i64 40
  %13 = load ptr, ptr %12, align 8, !tbaa !36
  %.not15 = icmp eq ptr %13, null
  br i1 %.not15, label %15, label %14

14:                                               ; preds = %11
  tail call void %13(ptr noundef %0, i32 noundef %1, i64 noundef %7, i32 noundef %2) #11
  br label %15

15:                                               ; preds = %8, %14, %11
  %indvars.iv.next = add nuw nsw i64 %indvars.iv, 1
  %16 = getelementptr inbounds nuw [4 x ptr], ptr @tr2_tgt_builtins, i64 0, i64 %indvars.iv.next
  %17 = load ptr, ptr %16, align 8, !tbaa !10
  %.not = icmp eq i64 %indvars.iv.next, 3
  br i1 %.not, label %.loopexit, label %8, !llvm.loop !37

.loopexit:                                        ; preds = %15, %3
  ret void
}